; ModuleID = 'source-C-CXX/20/683.cpp'
source_filename = "source-C-CXX/20/683.cpp"
target datalayout = "e-m:e-p270:32:32-p271:32:32-p272:64:64-i64:64-f80:128-n8:16:32:64-S128"
target triple = "x86_64-pc-linux-gnu"

%"class.std::ios_base::Init" = type { i8 }
%"class.std::basic_istream" = type { i32 (...)**, i64, %"class.std::basic_ios" }
%"class.std::basic_ios" = type { %"class.std::ios_base", %"class.std::basic_ostream"*, i8, i8, %"class.std::basic_streambuf"*, %"class.std::ctype"*, %"class.std::num_put"*, %"class.std::num_get"* }
%"class.std::ios_base" = type { i32 (...)**, i64, i64, i32, i32, i32, %"struct.std::ios_base::_Callback_list"*, %"struct.std::ios_base::_Words", [8 x %"struct.std::ios_base::_Words"], i32, %"struct.std::ios_base::_Words"*, %"class.std::locale" }
%"struct.std::ios_base::_Callback_list" = type { %"struct.std::ios_base::_Callback_list"*, void (i32, %"class.std::ios_base"*, i32)*, i32, i32 }
%"struct.std::ios_base::_Words" = type { i8*, i64 }
%"class.std::locale" = type { %"class.std::locale::_Impl"* }
%"class.std::locale::_Impl" = type { i32, %"class.std::locale::facet"**, i64, %"class.std::locale::facet"**, i8** }
%"class.std::locale::facet" = type <{ i32 (...)**, i32, [4 x i8] }>
%"class.std::basic_ostream" = type { i32 (...)**, %"class.std::basic_ios" }
%"class.std::basic_streambuf" = type { i32 (...)**, i8*, i8*, i8*, i8*, i8*, i8*, %"class.std::locale" }
%"class.std::ctype" = type <{ %"class.std::locale::facet.base", [4 x i8], %struct.__locale_struct*, i8, [7 x i8], i32*, i32*, i16*, i8, [256 x i8], [256 x i8], i8, [6 x i8] }>
%"class.std::locale::facet.base" = type <{ i32 (...)**, i32 }>
%struct.__locale_struct = type { [13 x %struct.__locale_data*], i16*, i32*, i32*, [13 x i8*] }
%struct.__locale_data = type opaque
%"class.std::num_put" = type { %"class.std::locale::facet.base", [4 x i8] }
%"class.std::num_get" = type { %"class.std::locale::facet.base", [4 x i8] }

@_ZStL8__ioinit = internal global %"class.std::ios_base::Init" zeroinitializer, align 1
@__dso_handle = external hidden global i8
@_ZSt3cin = external global %"class.std::basic_istream", align 8
@_ZSt4cout = external global %"class.std::basic_ostream", align 8
@.str = private unnamed_addr constant [2 x i8] c",\00", align 1
@llvm.global_ctors = appending global [1 x { i32, void ()*, i8* }] [{ i32, void ()*, i8* } { i32 65535, void ()* @_GLOBAL__sub_I_683.cpp, i8* null }]

declare void @_ZNSt8ios_base4InitC1Ev(%"class.std::ios_base::Init"* nonnull align 1 dereferenceable(1)) unnamed_addr #0

; Function Attrs: nounwind
declare void @_ZNSt8ios_base4InitD1Ev(%"class.std::ios_base::Init"* nonnull align 1 dereferenceable(1)) unnamed_addr #1

; Function Attrs: nofree nounwind
declare i32 @__cxa_atexit(void (i8*)*, i8*, i8*) local_unnamed_addr #2

; Function Attrs: mustprogress norecurse sspstrong uwtable
define dso_local i32 @main() local_unnamed_addr #3 {
  %1 = alloca [100 x i32], align 16
  %2 = alloca i32, align 4
  %3 = bitcast [100 x i32]* %1 to i8*
  call void @llvm.lifetime.start.p0i8(i64 400, i8* nonnull %3) #7
  %4 = bitcast i32* %2 to i8*
  call void @llvm.lifetime.start.p0i8(i64 4, i8* nonnull %4) #7
  %5 = call nonnull align 8 dereferenceable(16) %"class.std::basic_istream"* @_ZNSirsERi(%"class.std::basic_istream"* nonnull align 8 dereferenceable(16) @_ZSt3cin, i32* nonnull align 4 dereferenceable(4) %2)
  %6 = load i32, i32* %2, align 4, !tbaa !5
  %7 = icmp slt i32 %6, 1
  br i1 %7, label %8, label %11

8:                                                ; preds = %0
  %9 = sitofp i32 %6 to float
  %10 = fdiv float 0.000000e+00, %9
  br label %72

11:                                               ; preds = %0, %11
  %12 = phi i64 [ %19, %11 ], [ 1, %0 ]
  %13 = phi float [ %18, %11 ], [ 0.000000e+00, %0 ]
  %14 = getelementptr inbounds [100 x i32], [100 x i32]* %1, i64 0, i64 %12
  %15 = call nonnull align 8 dereferenceable(16) %"class.std::basic_istream"* @_ZNSirsERi(%"class.std::basic_istream"* nonnull align 8 dereferenceable(16) @_ZSt3cin, i32* nonnull align 4 dereferenceable(4) %14)
  %16 = load i32, i32* %14, align 4, !tbaa !5
  %17 = sitofp i32 %16 to float
  %18 = fadd float %13, %17
  %19 = add nuw nsw i64 %12, 1
  %20 = load i32, i32* %2, align 4, !tbaa !5
  %21 = sext i32 %20 to i64
  %22 = icmp slt i64 %12, %21
  br i1 %22, label %11, label %23, !llvm.loop !9

23:                                               ; preds = %11
  %24 = sitofp i32 %20 to float
  %25 = fdiv float %18, %24
  %26 = icmp sgt i32 %20, 1
  br i1 %26, label %27, label %72

27:                                               ; preds = %23
  %28 = zext i32 %20 to i64
  %29 = getelementptr inbounds [100 x i32], [100 x i32]* %1, i64 0, i64 1
  %30 = add nsw i64 %28, -2
  br label %46

31:                                               ; preds = %102, %46
  %32 = phi i32 [ %51, %46 ], [ %103, %102 ]
  %33 = phi i64 [ 1, %46 ], [ %68, %102 ]
  %34 = icmp eq i64 %52, 0
  br i1 %34, label %42, label %35

35:                                               ; preds = %31
  %36 = add nuw nsw i64 %33, 1
  %37 = getelementptr inbounds [100 x i32], [100 x i32]* %1, i64 0, i64 %36
  %38 = load i32, i32* %37, align 4, !tbaa !5
  %39 = icmp slt i32 %32, %38
  br i1 %39, label %40, label %42

40:                                               ; preds = %35
  %41 = getelementptr inbounds [100 x i32], [100 x i32]* %1, i64 0, i64 %33
  store i32 %38, i32* %41, align 4, !tbaa !5
  store i32 %32, i32* %37, align 4, !tbaa !5
  br label %42

42:                                               ; preds = %40, %35, %31
  %43 = icmp sgt i64 %48, 2
  %44 = add nsw i64 %48, -1
  %45 = add i64 %47, 1
  br i1 %43, label %46, label %72, !llvm.loop !11

46:                                               ; preds = %42, %27
  %47 = phi i64 [ %45, %42 ], [ 0, %27 ]
  %48 = phi i64 [ %44, %42 ], [ %28, %27 ]
  %49 = xor i64 %47, -1
  %50 = add i64 %49, %28
  %51 = load i32, i32* %29, align 4, !tbaa !5
  %52 = and i64 %50, 1
  %53 = icmp eq i64 %30, %47
  br i1 %53, label %31, label %54

54:                                               ; preds = %46
  %55 = and i64 %50, -2
  br label %56

56:                                               ; preds = %102, %54
  %57 = phi i32 [ %51, %54 ], [ %103, %102 ]
  %58 = phi i64 [ 1, %54 ], [ %68, %102 ]
  %59 = phi i64 [ %55, %54 ], [ %104, %102 ]
  %60 = add nuw nsw i64 %58, 1
  %61 = getelementptr inbounds [100 x i32], [100 x i32]* %1, i64 0, i64 %60
  %62 = load i32, i32* %61, align 4, !tbaa !5
  %63 = icmp slt i32 %57, %62
  br i1 %63, label %64, label %66

64:                                               ; preds = %56
  %65 = getelementptr inbounds [100 x i32], [100 x i32]* %1, i64 0, i64 %58
  store i32 %62, i32* %65, align 4, !tbaa !5
  store i32 %57, i32* %61, align 4, !tbaa !5
  br label %66

66:                                               ; preds = %56, %64
  %67 = phi i32 [ %62, %56 ], [ %57, %64 ]
  %68 = add nuw nsw i64 %58, 2
  %69 = getelementptr inbounds [100 x i32], [100 x i32]* %1, i64 0, i64 %68
  %70 = load i32, i32* %69, align 4, !tbaa !5
  %71 = icmp slt i32 %67, %70
  br i1 %71, label %100, label %102

72:                                               ; preds = %42, %8, %23
  %73 = phi float [ %10, %8 ], [ %25, %23 ], [ %25, %42 ]
  %74 = phi i32 [ %6, %8 ], [ %20, %23 ], [ %20, %42 ]
  %75 = getelementptr inbounds [100 x i32], [100 x i32]* %1, i64 0, i64 1
  %76 = load i32, i32* %75, align 4, !tbaa !5
  %77 = sext i32 %74 to i64
  %78 = getelementptr inbounds [100 x i32], [100 x i32]* %1, i64 0, i64 %77
  %79 = load i32, i32* %78, align 4, !tbaa !5
  %80 = insertelement <2 x i32> poison, i32 %76, i32 0
  %81 = insertelement <2 x i32> %80, i32 %79, i32 1
  %82 = sitofp <2 x i32> %81 to <2 x float>
  %83 = insertelement <2 x float> poison, float %73, i32 0
  %84 = shufflevector <2 x float> %83, <2 x float> poison, <2 x i32> zeroinitializer
  %85 = fsub <2 x float> %82, %84
  %86 = call <2 x float> @llvm.fabs.v2f32(<2 x float> %85)
  %87 = extractelement <2 x float> %86, i32 0
  %88 = extractelement <2 x float> %86, i32 1
  %89 = fcmp ogt float %87, %88
  br i1 %89, label %90, label %92

90:                                               ; preds = %72
  %91 = call nonnull align 8 dereferenceable(8) %"class.std::basic_ostream"* @_ZNSolsEi(%"class.std::basic_ostream"* nonnull align 8 dereferenceable(8) @_ZSt4cout, i32 %76)
  br label %99

92:                                               ; preds = %72
  %93 = fcmp oeq float %87, %88
  %94 = call nonnull align 8 dereferenceable(8) %"class.std::basic_ostream"* @_ZNSolsEi(%"class.std::basic_ostream"* nonnull align 8 dereferenceable(8) @_ZSt4cout, i32 %79)
  br i1 %93, label %95, label %99

95:                                               ; preds = %92
  %96 = call nonnull align 8 dereferenceable(8) %"class.std::basic_ostream"* @_ZSt16__ostream_insertIcSt11char_traitsIcEERSt13basic_ostreamIT_T0_ES6_PKS3_l(%"class.std::basic_ostream"* nonnull align 8 dereferenceable(8) %94, i8* nonnull getelementptr inbounds ([2 x i8], [2 x i8]* @.str, i64 0, i64 0), i64 1)
  %97 = load i32, i32* %75, align 4, !tbaa !5
  %98 = call nonnull align 8 dereferenceable(8) %"class.std::basic_ostream"* @_ZNSolsEi(%"class.std::basic_ostream"* nonnull align 8 dereferenceable(8) %94, i32 %97)
  br label %99

99:                                               ; preds = %92, %95, %90
  call void @llvm.lifetime.end.p0i8(i64 4, i8* nonnull %4) #7
  call void @llvm.lifetime.end.p0i8(i64 400, i8* nonnull %3) #7
  ret i32 0

100:                                              ; preds = %66
  %101 = getelementptr inbounds [100 x i32], [100 x i32]* %1, i64 0, i64 %60
  store i32 %70, i32* %101, align 4, !tbaa !5
  store i32 %67, i32* %69, align 4, !tbaa !5
  br label %102

102:                                              ; preds = %100, %66
  %103 = phi i32 [ %70, %66 ], [ %67, %100 ]
  %104 = add i64 %59, -2
  %105 = icmp eq i64 %104, 0
  br i1 %105, label %31, label %56, !llvm.loop !12
}

; Function Attrs: argmemonly mustprogress nofree nosync nounwind willreturn
declare void @llvm.lifetime.start.p0i8(i64 immarg, i8* nocapture) #4

declare nonnull align 8 dereferenceable(16) %"class.std::basic_istream"* @_ZNSirsERi(%"class.std::basic_istream"* nonnull align 8 dereferenceable(16), i32* nonnull align 4 dereferenceable(4)) local_unnamed_addr #0

declare nonnull align 8 dereferenceable(8) %"class.std::basic_ostream"* @_ZNSolsEi(%"class.std::basic_ostream"* nonnull align 8 dereferenceable(8), i32) local_unnamed_addr #0

; Function Attrs: argmemonly mustprogress nofree nosync nounwind willreturn
declare void @llvm.lifetime.end.p0i8(i64 immarg, i8* nocapture) #4

declare nonnull align 8 dereferenceable(8) %"class.std::basic_ostream"* @_ZSt16__ostream_insertIcSt11char_traitsIcEERSt13basic_ostreamIT_T0_ES6_PKS3_l(%"class.std::basic_ostream"* nonnull align 8 dereferenceable(8), i8*, i64) local_unnamed_addr #0

; Function Attrs: sspstrong uwtable
define internal void @_GLOBAL__sub_I_683.cpp() #5 section ".text.startup" {
  tail call void @_ZNSt8ios_base4InitC1Ev(%"class.std::ios_base::Init"* nonnull align 1 dereferenceable(1) @_ZStL8__ioinit)
  %1 = tail call i32 @__cxa_atexit(void (i8*)* bitcast (void (%"class.std::ios_base::Init"*)* @_ZNSt8ios_base4InitD1Ev to void (i8*)*), i8* getelementptr inbounds (%"class.std::ios_base::Init", %"class.std::ios_base::Init"* @_ZStL8__ioinit, i64 0, i32 0), i8* nonnull @__dso_handle) #7
  ret void
}

; Function Attrs: nofree nosync nounwind readnone speculatable willreturn
declare <2 x float> @llvm.fabs.v2f32(<2 x float>) #6


!llvm.module.flags = !{!0, !1, !2, !3}
!llvm.ident = !{!4}

!0 = !{i32 1, !"wchar_size", i32 4}
!1 = !{i32 7, !"PIC Level", i32 2}
!2 = !{i32 7, !"PIE Level", i32 2}
!3 = !{i32 7, !"uwtable", i32 1}
!4 = !{!"clang version 13.0.0"}
!5 = !{!6, !6, i64 0}
!6 = !{!"int", !7, i64 0}
!7 = !{!"omnipotent char", !8, i64 0}
!8 = !{!"Simple C++ TBAA"}
!9 = distinct !{!9, !10}
!10 = !{!"llvm.loop.mustprogress"}
!11 = distinct !{!11, !10}
!12 = distinct !{!12, !10}
